target datalayout = "e-m:e-p270:32:32-p271:32:32-p272:64:64-i64:64-i128:128-f80:128-n8:16:32:64-S128"
target triple = "x86_64-unknown-linux-gnu"

@_ZL8gService = internal global ptr null, align 8

; Function Attrs: mustprogress nounwind uwtable
define internal noundef signext i8 @_ZL9U_SUCCESS10UErrorCode(i32 noundef %code) #0 {
entry:
  %code.addr = alloca i32, align 4
  store i32 %code, ptr %code.addr, align 4
  %0 = load i32, ptr %code.addr, align 4
  %cmp = icmp sle i32 %0, 0
  %conv = zext i1 %cmp to i8
  ret i8 %conv
}

; Function Attrs: mustprogress uwtable
define noundef signext i8 @_ZN6icu_7513BreakIterator10unregisterEPKvR10UErrorCode(ptr noundef %key, ptr noundef nonnull align 4 dereferenceable(4) %status) #1 align 2 {
entry:
  %retval = alloca i8, align 1
  %key.addr = alloca ptr, align 8
  %status.addr = alloca ptr, align 8
  store ptr %key, ptr %key.addr, align 8
  store ptr %status, ptr %status.addr, align 8
  %0 = load ptr, ptr %status.addr, align 8
  %1 = load i32, ptr %0, align 4
  %call = call noundef signext i8 @_ZL9U_SUCCESS10UErrorCode(i32 noundef %1)
  %tobool = icmp ne i8 %call, 0
  br i1 %tobool, label %if.then, label %if.end5

if.then:                                          ; preds = %entry
  %call1 = call noundef signext i8 @_ZN6icu_75L10hasServiceEv()
  %tobool2 = icmp ne i8 %call1, 0
  br i1 %tobool2, label %if.then3, label %if.end

if.then3:                                         ; preds = %if.then
  %2 = load ptr, ptr @_ZL8gService, align 8
  %3 = load ptr, ptr %key.addr, align 8
  %4 = load ptr, ptr %status.addr, align 8
  %vtable = load ptr, ptr %2, align 8
  %vfn = getelementptr inbounds ptr, ptr %vtable, i64 10
  %5 = load ptr, ptr %vfn, align 8
  %call4 = call noundef signext i8 %5(ptr noundef nonnull align 8 dereferenceable(120) %2, ptr noundef %3, ptr noundef nonnull align 4 dereferenceable(4) %4)
  store i8 %call4, ptr %retval, align 1
  br label %return

if.end:                                           ; preds = %if.then
  %6 = load ptr, ptr %status.addr, align 8
  store i32 7, ptr %6, align 4
  br label %if.end5

if.end5:                                          ; preds = %if.end, %entry
  store i8 0, ptr %retval, align 1
  br label %return

return:                                           ; preds = %if.end5, %if.then3
  %7 = load i8, ptr %retval, align 1
  ret i8 %7
}