; Function Attrs: mustprogress uwtable
define noundef signext i8 @_ZN6icu_7513BreakIterator10unregisterEPKvR10UErrorCode(ptr noundef %key, ptr noundef nonnull align 4 dereferenceable(4) %status) local_unnamed_addr #1 align 2 {
entry:
  %0 = load i32, ptr %status, align 4
  %cmp.i = icmp sgt i32 %0, 0
  br i1 %cmp.i, label %return, label %if.then

if.then:                                          ; preds = %entry
  %call1 = tail call fastcc noundef signext i8 @_ZN6icu_75L10hasServiceEv(), !range !4
  %tobool2.not = icmp eq i8 %call1, 0
  br i1 %tobool2.not, label %if.end, label %if.then3

if.then3:                                         ; preds = %if.then
  %1 = load ptr, ptr @_ZL8gService, align 8
  %vtable = load ptr, ptr %1, align 8
  %vfn = getelementptr inbounds i8, ptr %vtable, i64 80
  %2 = load ptr, ptr %vfn, align 8
  %call4 = tail call noundef signext i8 %2(ptr noundef nonnull align 8 dereferenceable(120) %1, ptr noundef %key, ptr noundef nonnull align 4 dereferenceable(4) %status)
  br label %return

if.end:                                           ; preds = %if.then
  store i32 7, ptr %status, align 4
  br label %return

return:                                           ; preds = %entry, %if.end, %if.then3
  %retval.0 = phi i8 [ %call4, %if.then3 ], [ 0, %if.end ], [ 0, %entry ]
  ret i8 %retval.0
}